; Function Attrs: mustprogress nounwind uwtable
define dso_local void @_ZNK4llvm10AsmPrinter19emitDwarfUnitLengthEmRKNS_5TwineE(ptr nocapture noundef nonnull readonly align 8 dereferenceable(785) %0, i64 noundef %1, ptr noundef nonnull align 8 dereferenceable(34) %2) local_unnamed_addr #0 align 2 {
  %4 = getelementptr inbounds nuw i8, ptr %0, i64 80
  %5 = load ptr, ptr %4, align 8
  %6 = load ptr, ptr %5, align 8
  %7 = getelementptr inbounds i8, ptr %6, i64 1264
  %8 = load ptr, ptr %7, align 8
  tail call void %8(ptr noundef nonnull align 8 dereferenceable(288) %5, i64 noundef %1, ptr noundef nonnull align 8 dereferenceable(34) %2) #6
  ret void
}